; ModuleID = '51/1063.c'
source_filename = "51/1063.c"
target datalayout = "e-m:e-p270:32:32-p271:32:32-p272:64:64-i64:64-f80:128-n8:16:32:64-S128"
target triple = "x86_64-pc-linux-gnu"

@.str = private unnamed_addr constant [3 x i8] c"%d\00", align 1
@.str.1 = private unnamed_addr constant [3 x i8] c"%s\00", align 1
@.str.2 = private unnamed_addr constant [4 x i8] c"%d\0A\00", align 1
@.str.3 = private unnamed_addr constant [4 x i8] c"%s\0A\00", align 1
@.str.4 = private unnamed_addr constant [3 x i8] c"NO\00", align 1

; Function Attrs: noinline nounwind uwtable
define dso_local i32 @main() #0 {
  %1 = alloca i32, align 4
  %2 = alloca [1000 x i8], align 16
  %3 = alloca i32, align 4
  %4 = alloca i32, align 4
  %5 = alloca i32, align 4
  %6 = alloca i32, align 4
  %7 = alloca [1000 x i32], align 16
  %8 = alloca [1000 x i32], align 16
  %9 = alloca i32, align 4
  %10 = alloca [1000 x [10 x i8]], align 16
  store i32 0, i32* %1, align 4
  %11 = bitcast [1000 x i32]* %7 to i8*
  call void @llvm.memset.p0i8.i64(i8* align 16 %11, i8 0, i64 4000, i1 false)
  %12 = bitcast [1000 x i32]* %8 to i8*
  call void @llvm.memset.p0i8.i64(i8* align 16 %12, i8 0, i64 4000, i1 false)
  store i32 0, i32* %9, align 4
  %13 = call i32 (i8*, ...) @__isoc99_scanf(i8* getelementptr inbounds ([3 x i8], [3 x i8]* @.str, i64 0, i64 0), i32* %3)
  %14 = getelementptr inbounds [1000 x i8], [1000 x i8]* %2, i64 0, i64 0
  %15 = call i32 (i8*, ...) @__isoc99_scanf(i8* getelementptr inbounds ([3 x i8], [3 x i8]* @.str.1, i64 0, i64 0), i8* %14)
  store i32 0, i32* %5, align 4
  br label %16

16:                                               ; preds = %54, %0
  %17 = load i32, i32* %5, align 4
  %18 = sext i32 %17 to i64
  %19 = getelementptr inbounds [1000 x i8], [1000 x i8]* %2, i64 0, i64 0
  %20 = call i64 @strlen(i8* %19) #4
  %21 = load i32, i32* %3, align 4
  %22 = sext i32 %21 to i64
  %23 = sub i64 %20, %22
  %24 = add i64 %23, 1
  %25 = icmp ult i64 %18, %24
  br i1 %25, label %26, label %57

26:                                               ; preds = %16
  store i32 0, i32* %6, align 4
  br label %27

27:                                               ; preds = %44, %26
  %28 = load i32, i32* %6, align 4
  %29 = load i32, i32* %3, align 4
  %30 = icmp slt i32 %28, %29
  br i1 %30, label %31, label %47

31:                                               ; preds = %27
  %32 = load i32, i32* %5, align 4
  %33 = load i32, i32* %6, align 4
  %34 = add nsw i32 %32, %33
  %35 = sext i32 %34 to i64
  %36 = getelementptr inbounds [1000 x i8], [1000 x i8]* %2, i64 0, i64 %35
  %37 = load i8, i8* %36, align 1
  %38 = load i32, i32* %5, align 4
  %39 = sext i32 %38 to i64
  %40 = getelementptr inbounds [1000 x [10 x i8]], [1000 x [10 x i8]]* %10, i64 0, i64 %39
  %41 = load i32, i32* %6, align 4
  %42 = sext i32 %41 to i64
  %43 = getelementptr inbounds [10 x i8], [10 x i8]* %40, i64 0, i64 %42
  store i8 %37, i8* %43, align 1
  br label %44

44:                                               ; preds = %31
  %45 = load i32, i32* %6, align 4
  %46 = add nsw i32 %45, 1
  store i32 %46, i32* %6, align 4
  br label %27

47:                                               ; preds = %27
  %48 = load i32, i32* %5, align 4
  %49 = sext i32 %48 to i64
  %50 = getelementptr inbounds [1000 x [10 x i8]], [1000 x [10 x i8]]* %10, i64 0, i64 %49
  %51 = load i32, i32* %3, align 4
  %52 = sext i32 %51 to i64
  %53 = getelementptr inbounds [10 x i8], [10 x i8]* %50, i64 0, i64 %52
  store i8 0, i8* %53, align 1
  br label %54

54:                                               ; preds = %47
  %55 = load i32, i32* %5, align 4
  %56 = add nsw i32 %55, 1
  store i32 %56, i32* %5, align 4
  br label %16

57:                                               ; preds = %16
  store i32 0, i32* %5, align 4
  br label %58

58:                                               ; preds = %102, %57
  %59 = load i32, i32* %5, align 4
  %60 = sext i32 %59 to i64
  %61 = getelementptr inbounds [1000 x i8], [1000 x i8]* %2, i64 0, i64 0
  %62 = call i64 @strlen(i8* %61) #4
  %63 = load i32, i32* %3, align 4
  %64 = sext i32 %63 to i64
  %65 = sub i64 %62, %64
  %66 = add i64 %65, 1
  %67 = icmp ult i64 %60, %66
  br i1 %67, label %68, label %105

68:                                               ; preds = %58
  %69 = load i32, i32* %5, align 4
  store i32 %69, i32* %6, align 4
  br label %70

70:                                               ; preds = %98, %68
  %71 = load i32, i32* %6, align 4
  %72 = sext i32 %71 to i64
  %73 = getelementptr inbounds [1000 x i8], [1000 x i8]* %2, i64 0, i64 0
  %74 = call i64 @strlen(i8* %73) #4
  %75 = load i32, i32* %3, align 4
  %76 = sext i32 %75 to i64
  %77 = sub i64 %74, %76
  %78 = add i64 %77, 1
  %79 = icmp ult i64 %72, %78
  br i1 %79, label %80, label %101

80:                                               ; preds = %70
  %81 = load i32, i32* %5, align 4
  %82 = sext i32 %81 to i64
  %83 = getelementptr inbounds [1000 x [10 x i8]], [1000 x [10 x i8]]* %10, i64 0, i64 %82
  %84 = getelementptr inbounds [10 x i8], [10 x i8]* %83, i64 0, i64 0
  %85 = load i32, i32* %6, align 4
  %86 = sext i32 %85 to i64
  %87 = getelementptr inbounds [1000 x [10 x i8]], [1000 x [10 x i8]]* %10, i64 0, i64 %86
  %88 = getelementptr inbounds [10 x i8], [10 x i8]* %87, i64 0, i64 0
  %89 = call i32 @strcmp(i8* %84, i8* %88) #4
  %90 = icmp eq i32 %89, 0
  br i1 %90, label %91, label %97

91:                                               ; preds = %80
  %92 = load i32, i32* %5, align 4
  %93 = sext i32 %92 to i64
  %94 = getelementptr inbounds [1000 x i32], [1000 x i32]* %7, i64 0, i64 %93
  %95 = load i32, i32* %94, align 4
  %96 = add nsw i32 %95, 1
  store i32 %96, i32* %94, align 4
  br label %97

97:                                               ; preds = %91, %80
  br label %98

98:                                               ; preds = %97
  %99 = load i32, i32* %6, align 4
  %100 = add nsw i32 %99, 1
  store i32 %100, i32* %6, align 4
  br label %70

101:                                              ; preds = %70
  br label %102

102:                                              ; preds = %101
  %103 = load i32, i32* %5, align 4
  %104 = add nsw i32 %103, 1
  store i32 %104, i32* %5, align 4
  br label %58

105:                                              ; preds = %58
  store i32 0, i32* %5, align 4
  br label %106

106:                                              ; preds = %129, %105
  %107 = load i32, i32* %5, align 4
  %108 = sext i32 %107 to i64
  %109 = getelementptr inbounds [1000 x i8], [1000 x i8]* %2, i64 0, i64 0
  %110 = call i64 @strlen(i8* %109) #4
  %111 = load i32, i32* %3, align 4
  %112 = sext i32 %111 to i64
  %113 = sub i64 %110, %112
  %114 = add i64 %113, 1
  %115 = icmp ult i64 %108, %114
  br i1 %115, label %116, label %132

116:                                              ; preds = %106
  %117 = load i32, i32* %5, align 4
  %118 = sext i32 %117 to i64
  %119 = getelementptr inbounds [1000 x i32], [1000 x i32]* %7, i64 0, i64 %118
  %120 = load i32, i32* %119, align 4
  %121 = load i32, i32* %9, align 4
  %122 = icmp sgt i32 %120, %121
  br i1 %122, label %123, label %128

123:                                              ; preds = %116
  %124 = load i32, i32* %5, align 4
  %125 = sext i32 %124 to i64
  %126 = getelementptr inbounds [1000 x i32], [1000 x i32]* %7, i64 0, i64 %125
  %127 = load i32, i32* %126, align 4
  store i32 %127, i32* %9, align 4
  br label %128

128:                                              ; preds = %123, %116
  br label %129

129:                                              ; preds = %128
  %130 = load i32, i32* %5, align 4
  %131 = add nsw i32 %130, 1
  store i32 %131, i32* %5, align 4
  br label %106

132:                                              ; preds = %106
  %133 = load i32, i32* %9, align 4
  %134 = icmp sgt i32 %133, 1
  br i1 %134, label %135, label %166

135:                                              ; preds = %132
  %136 = load i32, i32* %9, align 4
  %137 = call i32 (i8*, ...) @printf(i8* getelementptr inbounds ([4 x i8], [4 x i8]* @.str.2, i64 0, i64 0), i32 %136)
  store i32 0, i32* %5, align 4
  br label %138

138:                                              ; preds = %162, %135
  %139 = load i32, i32* %5, align 4
  %140 = sext i32 %139 to i64
  %141 = getelementptr inbounds [1000 x i8], [1000 x i8]* %2, i64 0, i64 0
  %142 = call i64 @strlen(i8* %141) #4
  %143 = load i32, i32* %3, align 4
  %144 = sext i32 %143 to i64
  %145 = sub i64 %142, %144
  %146 = add i64 %145, 1
  %147 = icmp ult i64 %140, %146
  br i1 %147, label %148, label %165

148:                                              ; preds = %138
  %149 = load i32, i32* %5, align 4
  %150 = sext i32 %149 to i64
  %151 = getelementptr inbounds [1000 x i32], [1000 x i32]* %7, i64 0, i64 %150
  %152 = load i32, i32* %151, align 4
  %153 = load i32, i32* %9, align 4
  %154 = icmp eq i32 %152, %153
  br i1 %154, label %155, label %161

155:                                              ; preds = %148
  %156 = load i32, i32* %5, align 4
  %157 = sext i32 %156 to i64
  %158 = getelementptr inbounds [1000 x [10 x i8]], [1000 x [10 x i8]]* %10, i64 0, i64 %157
  %159 = getelementptr inbounds [10 x i8], [10 x i8]* %158, i64 0, i64 0
  %160 = call i32 (i8*, ...) @printf(i8* getelementptr inbounds ([4 x i8], [4 x i8]* @.str.3, i64 0, i64 0), i8* %159)
  br label %161

161:                                              ; preds = %155, %148
  br label %162

162:                                              ; preds = %161
  %163 = load i32, i32* %5, align 4
  %164 = add nsw i32 %163, 1
  store i32 %164, i32* %5, align 4
  br label %138

165:                                              ; preds = %138
  br label %168

166:                                              ; preds = %132
  %167 = call i32 (i8*, ...) @printf(i8* getelementptr inbounds ([3 x i8], [3 x i8]* @.str.4, i64 0, i64 0))
  br label %168

168:                                              ; preds = %166, %165
  %169 = load i32, i32* %1, align 4
  ret i32 %169
}

; Function Attrs: argmemonly nounwind willreturn
declare void @llvm.memset.p0i8.i64(i8* nocapture writeonly, i8, i64, i1 immarg) #1

declare dso_local i32 @__isoc99_scanf(i8*, ...) #2

; Function Attrs: nounwind readonly
declare dso_local i64 @strlen(i8*) #3

; Function Attrs: nounwind readonly
declare dso_local i32 @strcmp(i8*, i8*) #3

declare dso_local i32 @printf(i8*, ...) #2


!llvm.module.flags = !{!0}
!llvm.ident = !{!1}

!0 = !{i32 1, !"wchar_size", i32 4}
!1 = !{!"clang version 10.0.0-4ubuntu1 "}
